Certificate:
    Data:
        Version: 3 (0x2)
        Serial Number: 0 (0x0)
        Signature Algorithm: sha256WithRSAEncryption
        Issuer: C=US, CN=quill-test-intermediate-ca-with-ou
        Validity
            Not Before: Mar  6 19:18:56 2026 GMT
            Not After : Jun  8 19:18:56 2028 GMT
        Subject: OU=TESTTEAMID, CN=quill-test-leaf-with-ou
        Subject Public Key Info:
            Public Key Algorithm: rsaEncryption
                Public-Key: (2048 bit)
                Modulus:
                    00:d5:af:e4:2a:e5:86:e9:73:dd:87:68:46:59:5b:
                    5e:de:44:10:4a:a7:95:8a:be:2d:cb:ba:0e:1c:ad:
                    ef:0e:0b:af:90:54:f8:c4:e3:5f:f5:ac:f6:ad:46:
                    cb:84:04:3e:03:df:3b:60:54:e7:d5:70:b8:eb:b2:
                    09:50:ad:25:62:d3:57:7a:35:5d:8b:96:e4:f4:d4:
                    e5:71:5e:97:43:fa:c6:4b:90:44:be:fd:f6:db:01:
                    ce:b6:c5:60:6f:f5:be:94:88:93:4c:1d:27:3f:e2:
                    6b:6e:31:69:12:f1:01:15:34:01:e4:bd:cd:df:15:
                    ce:34:03:8b:19:e4:37:5d:f7:71:3f:be:fb:7d:e6:
                    a8:d5:81:5d:e6:9c:1a:de:75:7e:f0:85:cc:84:8c:
                    43:9b:2d:51:58:64:b7:20:d0:35:1b:49:30:25:22:
                    82:de:c8:16:8f:e1:b5:0e:d6:28:d8:0c:df:45:1f:
                    50:90:3e:e7:c6:66:d3:bd:2e:7b:87:64:7d:ef:23:
                    5e:1e:d1:e2:88:b3:1b:c1:55:13:9c:8a:de:a1:88:
                    c3:ff:bf:8d:1d:60:cb:a8:1c:1a:03:82:07:fc:6e:
                    4b:6a:57:0a:a5:9c:b4:85:40:df:7f:da:b0:3e:a6:
                    57:09:6a:6a:de:8a:d4:47:18:32:1f:2a:1f:68:30:
                    ef:77
                Exponent: 65537 (0x10001)
        X509v3 extensions:
            X509v3 Key Usage: critical
                Digital Signature
            X509v3 Extended Key Usage: critical
                Code Signing
            X509v3 Subject Key Identifier: 
                FB:35:D9:C1:F5:75:67:F6:0D:59:68:C0:70:C9:64:D3:AA:EC:39:41
            X509v3 Authority Key Identifier: 
                4D:76:9A:BF:47:F8:84:A2:CE:5F:02:76:A9:01:9D:DA:BE:DF:55:CE
    Signature Algorithm: sha256WithRSAEncryption
    Signature Value:
        8f:d7:4e:f2:83:82:e7:77:63:e7:4f:26:88:42:7e:38:36:9c:
        9b:6a:97:1f:35:af:19:44:ab:25:11:10:79:8f:24:94:cd:cd:
        55:84:d6:50:6d:99:a8:ba:c5:b0:df:dd:7d:a6:a3:cf:a6:b8:
        0a:1c:16:1d:0c:d5:03:6e:d6:2a:70:6e:66:ec:11:17:dc:2a:
        3c:fe:ab:86:9d:94:78:70:f2:cd:e4:70:b3:08:06:e1:f8:ff:
        96:1a:44:0b:63:b1:e2:ef:84:9c:f0:d8:4b:03:b9:e5:9a:f4:
        e2:57:36:2b:88:89:90:a8:94:c6:7d:2b:f2:cd:c9:68:9e:cc:
        32:23:14:8e:00:d5:70:d0:88:bd:46:a2:21:e0:c6:b6:55:da:
        d9:6e:3e:eb:d0:77:e1:f3:70:ad:ea:d2:1e:6f:88:f3:66:5f:
        4c:db:90:b8:97:71:5b:1d:fa:e8:4c:89:3b:01:ae:ba:6b:50:
        a1:09:a4:ec:cc:9a:4d:5f:5e:ec:23:16:3f:ef:08:49:a0:d3:
        55:b7:aa:5b:b1:b2:30:47:9d:3a:cd:ca:42:02:ab:98:3d:7b:
        6d:50:fe:16:1f:12:83:a7:f8:e6:ab:89:72:94:ef:ea:a3:87:
        e9:da:e1:06:f1:6c:cd:05:36:a5:d1:2b:70:3e:97:d9:04:b4:
        c3:70:fc:b1
-----BEGIN CERTIFICATE-----
MIIDVjCCAj6gAwIBAgIBADANBgkqhkiG9w0BAQsFADA6MQswCQYDVQQGEwJVUzEr
MCkGA1UEAwwicXVpbGwtdGVzdC1pbnRlcm1lZGlhdGUtY2Etd2l0aC1vdTAeFw0y
NjAzMDYxOTE4NTZaFw0yODA2MDgxOTE4NTZaMDcxEzARBgNVBAsMClRFU1RURUFN
SUQxIDAeBgNVBAMMF3F1aWxsLXRlc3QtbGVhZi13aXRoLW91MIIBIjANBgkqhkiG
9w0BAQEFAAOCAQ8AMIIBCgKCAQEA1a/kKuWG6XPdh2hGWVte3kQQSqeVir4ty7oO
HK3vDguvkFT4xONf9az2rUbLhAQ+A987YFTn1XC467IJUK0lYtNXejVdi5bk9NTl
cV6XQ/rGS5BEvv322wHOtsVgb/W+lIiTTB0nP+JrbjFpEvEBFTQB5L3N3xXONAOL
GeQ3XfdxP777feao1YFd5pwa3nV+8IXMhIxDmy1RWGS3INA1G0kwJSKC3sgWj+G1
DtYo2AzfRR9QkD7nxmbTvS57h2R97yNeHtHiiLMbwVUTnIreoYjD/7+NHWDLqBwa
A4IH/G5LalcKpZy0hUDff9qwPqZXCWpq3orURxgyHyofaDDvdwIDAQABo2owaDAO
BgNVHQ8BAf8EBAMCB4AwFgYDVR0lAQH/BAwwCgYIKwYBBQUHAwMwHQYDVR0OBBYE
FPs12cH1dWf2DVlowHDJZNOq7DlBMB8GA1UdIwQYMBaAFE12mr9H+ISizl8CdqkB
ndq+31XOMA0GCSqGSIb3DQEBCwUAA4IBAQCP107yg4Lnd2PnTyaIQn44Npybapcf
Na8ZRKslERB5jySUzc1VhNZQbZmousWw3919pqPPprgKHBYdDNUDbtYqcG5m7BEX
3Co8/quGnZR4cPLN5HCzCAbh+P+WGkQLY7Hi74Sc8NhLA7nlmvTiVzYriImQqJTG
fSvyzclonswyIxSOANVw0Ii9RqIh4Ma2VdrZbj7r0Hfh83Ct6tIeb4jzZl9M25C4
l3FbHfroTIk7Aa66a1ChCaTszJpNX17sIxY/7whJoNNVt6pbsbIwR506zcpCAquY
PXttUP4WHxKDp/jmq4lylO/qo4fp2uEG8WzNBTal0StwPpfZBLTDcPyx
-----END CERTIFICATE-----
