Certificate:
    Data:
        Version: 3 (0x2)
        Serial Number: 1 (0x1)
        Signature Algorithm: sha256WithRSAEncryption
        Issuer: C=US, CN=quill-test-root-ca-with-ou
        Validity
            Not Before: Mar  6 19:18:56 2026 GMT
            Not After : Jun  8 19:18:56 2028 GMT
        Subject: C=US, CN=quill-test-intermediate-ca-with-ou
        Subject Public Key Info:
            Public Key Algorithm: rsaEncryption
                Public-Key: (2048 bit)
                Modulus:
                    00:b5:e3:6c:36:ee:42:07:1a:0c:f9:0c:84:e9:c1:
                    1e:ed:9f:80:67:ba:11:4d:52:d7:3f:18:3c:f8:b6:
                    7e:1a:ed:27:6f:e9:66:1a:9b:d4:b7:3c:64:d6:68:
                    11:8a:16:8e:70:26:82:c9:30:dd:1f:62:60:17:9d:
                    9c:88:8b:54:f7:68:ce:0b:c4:c3:e9:b5:aa:f8:40:
                    d6:4b:3c:7b:19:3f:56:10:83:2d:cc:e6:ca:3c:7f:
                    83:99:3d:6c:22:a2:2c:45:0d:aa:98:7c:19:c2:44:
                    04:aa:a7:eb:cc:f4:c4:b1:d6:81:47:f8:c0:3d:e1:
                    68:fe:1a:fb:78:bb:73:a2:0e:d9:51:76:38:7d:20:
                    5a:65:86:e3:5a:fd:8a:de:a3:13:f4:60:13:20:12:
                    72:70:61:f8:0a:51:df:0a:67:48:b3:46:7d:ef:2b:
                    c9:7c:02:85:84:91:c9:66:11:e1:8c:6a:f1:f3:e2:
                    77:06:0b:8d:58:af:4c:10:5b:2d:69:6e:4f:83:15:
                    91:b9:9b:fa:d5:c7:ab:40:48:2f:4c:72:3a:54:2c:
                    e5:26:37:2b:35:cc:eb:cc:af:5b:0f:fc:27:ed:94:
                    ff:e1:c4:ab:d6:b9:6a:70:d1:16:70:d9:5b:9a:1c:
                    52:fd:38:bc:5f:c0:fc:b1:85:c6:25:b2:62:2b:94:
                    4c:37
                Exponent: 65537 (0x10001)
        X509v3 extensions:
            X509v3 Basic Constraints: critical
                CA:TRUE
            X509v3 Key Usage: critical
                Certificate Sign
            X509v3 Subject Key Identifier: 
                4D:76:9A:BF:47:F8:84:A2:CE:5F:02:76:A9:01:9D:DA:BE:DF:55:CE
            X509v3 Authority Key Identifier: 
                76:03:3B:F4:DA:D6:CD:C2:93:22:97:09:C7:97:BD:59:9C:1A:87:27
    Signature Algorithm: sha256WithRSAEncryption
    Signature Value:
        6b:ea:7e:79:1a:89:f1:f0:5e:1b:23:00:8a:11:58:d9:fb:df:
        87:0e:57:ba:ee:ad:d8:f5:96:b5:2a:f1:73:cf:13:c5:e5:4f:
        3b:af:92:31:21:0a:21:79:23:f4:5c:a3:40:ca:3e:ee:da:22:
        27:e6:5a:b1:25:24:e6:48:e4:a4:f5:b5:a0:45:af:8d:87:c0:
        42:21:e9:c9:d2:8d:c1:37:13:c7:9a:7a:fe:b6:a0:62:51:8e:
        6b:04:eb:27:41:25:57:a4:b7:9d:b0:e5:e8:17:ac:de:dd:c6:
        c8:0c:31:bf:85:c1:81:86:05:66:bc:3a:86:de:1e:92:83:99:
        5a:5d:94:23:ad:94:26:94:77:65:bb:7c:2a:68:a0:31:09:9b:
        0a:89:f1:05:23:bc:e3:82:23:0f:58:69:8d:e2:75:8e:20:77:
        ac:08:ef:12:74:c6:72:c1:82:d0:bf:b5:c0:06:d3:19:23:37:
        b4:67:29:80:1e:4b:f8:59:14:e6:6d:5c:33:db:f7:47:a0:a4:
        1b:a0:46:32:d7:a6:ac:6d:45:07:8d:97:d2:35:ef:16:7a:65:
        3f:05:f7:d0:19:a7:d4:fa:2f:6f:99:10:a8:29:61:d5:08:f4:
        1a:c7:7c:77:2e:ee:d6:5b:18:2d:ff:ef:56:61:bf:9d:5a:4f:
        6d:b6:a7:ce
-----BEGIN CERTIFICATE-----
MIIDSjCCAjKgAwIBAgIBATANBgkqhkiG9w0BAQsFADAyMQswCQYDVQQGEwJVUzEj
MCEGA1UEAwwacXVpbGwtdGVzdC1yb290LWNhLXdpdGgtb3UwHhcNMjYwMzA2MTkx
ODU2WhcNMjgwNjA4MTkxODU2WjA6MQswCQYDVQQGEwJVUzErMCkGA1UEAwwicXVp
bGwtdGVzdC1pbnRlcm1lZGlhdGUtY2Etd2l0aC1vdTCCASIwDQYJKoZIhvcNAQEB
BQADggEPADCCAQoCggEBALXjbDbuQgcaDPkMhOnBHu2fgGe6EU1S1z8YPPi2fhrt
J2/pZhqb1Lc8ZNZoEYoWjnAmgskw3R9iYBednIiLVPdozgvEw+m1qvhA1ks8exk/
VhCDLczmyjx/g5k9bCKiLEUNqph8GcJEBKqn68z0xLHWgUf4wD3haP4a+3i7c6IO
2VF2OH0gWmWG41r9it6jE/RgEyAScnBh+ApR3wpnSLNGfe8ryXwChYSRyWYR4Yxq
8fPidwYLjVivTBBbLWluT4MVkbmb+tXHq0BIL0xyOlQs5SY3KzXM68yvWw/8J+2U
/+HEq9a5anDRFnDZW5ocUv04vF/A/LGFxiWyYiuUTDcCAwEAAaNjMGEwDwYDVR0T
AQH/BAUwAwEB/zAOBgNVHQ8BAf8EBAMCAgQwHQYDVR0OBBYEFE12mr9H+ISizl8C
dqkBndq+31XOMB8GA1UdIwQYMBaAFHYDO/Ta1s3CkyKXCceXvVmcGocnMA0GCSqG
SIb3DQEBCwUAA4IBAQBr6n55Gonx8F4bIwCKEVjZ+9+HDle67q3Y9Za1KvFzzxPF
5U87r5IxIQoheSP0XKNAyj7u2iIn5lqxJSTmSOSk9bWgRa+Nh8BCIenJ0o3BNxPH
mnr+tqBiUY5rBOsnQSVXpLedsOXoF6ze3cbIDDG/hcGBhgVmvDqG3h6Sg5laXZQj
rZQmlHdlu3wqaKAxCZsKifEFI7zjgiMPWGmN4nWOIHesCO8SdMZywYLQv7XABtMZ
Ize0ZymAHkv4WRTmbVwz2/dHoKQboEYy16asbUUHjZfSNe8WemU/BffQGafU+i9v
mRCoKWHVCPQax3x3Lu7WWxgt/+9WYb+dWk9ttqfO
-----END CERTIFICATE-----
