Certificate:
    Data:
        Version: 1 (0x0)
        Serial Number: 0 (0x0)
    Signature Algorithm: sha256WithRSAEncryption
        Issuer: C=US, CN=quill-test-intermediate-ca
        Validity
            Not Before: Apr 30 16:03:35 2022 GMT
            Not After : Aug  2 16:03:35 2024 GMT
        Subject: CN=quill-test-leaf
        Subject Public Key Info:
            Public Key Algorithm: rsaEncryption
                Public-Key: (2048 bit)
                Modulus:
                    00:b8:a3:a2:86:62:09:c3:84:3a:78:cf:7b:3c:4a:
                    2a:e3:88:ac:93:4e:58:5a:7a:de:fc:d5:11:fe:8d:
                    74:a7:97:16:ff:1a:5e:0b:6b:6d:68:1d:58:28:e7:
                    bb:e4:30:91:5b:f0:df:70:e3:b7:64:e0:05:b4:5b:
                    cf:87:a0:40:ae:88:2e:ff:c1:96:96:9d:ac:12:1e:
                    bb:63:cf:cd:97:4d:77:e0:9a:c9:d2:e4:fd:93:94:
                    fc:f3:d1:c3:43:27:6b:d1:8f:52:70:50:98:93:2f:
                    eb:16:8a:2f:20:4e:a9:0b:06:ca:34:b7:45:c5:de:
                    42:9b:31:60:a7:16:eb:52:f3:f8:bd:04:c5:eb:c4:
                    fe:02:ab:38:a9:e6:b5:9b:4c:89:10:1f:ac:c2:80:
                    1f:76:b8:fb:f5:b0:7a:28:01:a5:c4:8c:bd:5e:b6:
                    90:f1:60:5f:52:1e:d2:66:71:93:0a:83:04:d9:0e:
                    39:de:4c:c8:2e:63:4d:cc:a7:ae:5a:3f:f7:67:22:
                    c0:d4:45:29:98:3f:cf:e1:ae:4e:e4:cf:62:0d:48:
                    a9:5d:66:a8:f4:cf:e9:67:19:83:85:b0:27:cb:0d:
                    b8:00:28:49:83:74:19:a5:40:2b:ad:97:c8:af:f5:
                    9e:76:e9:a3:00:5c:e2:78:ef:a2:80:08:04:4b:42:
                    da:69
                Exponent: 65537 (0x10001)
        X509v3 extensions:
            X509v3 Key Usage: critical
                Digital Signature
            X509v3 Extended Key Usage: critical
                Code Signing
            X509v3 Subject Key Identifier: 
                B4:E9:5B:CF:BF:9A:C6:CA:61:B9:15:F3:CE:89:51:F6:FD:27:F4:8F
    Signature Algorithm: sha256WithRSAEncryption
         41:88:e8:63:85:86:19:46:ef:f3:f4:ee:ba:a6:94:8a:e5:90:
         f5:25:cc:be:34:0c:88:af:83:ca:6c:01:d5:a3:cd:10:6e:70:
         0b:66:2c:fc:ca:f9:cb:32:c8:9a:39:9c:95:11:85:f6:64:a9:
         24:49:f3:37:4d:ad:22:e0:32:c5:0a:fe:37:72:da:4f:57:67:
         43:30:79:63:74:2c:0f:86:3f:20:07:d7:77:c2:a7:2c:79:8b:
         f7:01:94:cd:a0:97:16:63:a4:52:94:b7:7f:5a:83:1c:2d:40:
         ed:7e:53:ba:85:e9:fb:6a:91:22:e1:88:51:32:71:4a:77:ae:
         98:c7:a4:38:01:11:2c:8a:b4:2a:65:05:91:30:67:60:2c:cc:
         4b:87:b2:e6:3d:b2:d4:2c:14:b4:b2:72:b2:a1:70:3a:48:2c:
         2b:20:f4:37:ef:fc:26:eb:12:dd:9b:46:66:4e:1e:7d:26:4b:
         57:b3:7c:da:a8:53:5a:d8:52:5f:e8:82:df:6a:f1:d1:87:8b:
         24:2c:bd:a8:b7:2c:27:3d:4c:bc:85:ed:f0:1a:40:55:92:e7:
         de:86:14:38:a5:e6:39:99:7d:0d:a5:c6:ba:5c:a7:b1:3b:8c:
         01:9f:21:84:d3:7b:ce:80:2c:f0:f8:2f:3a:6d:ca:de:23:ba:
         75:bf:71:ba
-----BEGIN CERTIFICATE-----
MIIDCzCCAfMCAQAwDQYJKoZIhvcNAQELBQAwMjELMAkGA1UEBhMCVVMxIzAhBgNV
BAMMGnF1aWxsLXRlc3QtaW50ZXJtZWRpYXRlLWNhMB4XDTIyMDQzMDE2MDMzNVoX
DTI0MDgwMjE2MDMzNVowGjEYMBYGA1UEAwwPcXVpbGwtdGVzdC1sZWFmMIIBIjAN
BgkqhkiG9w0BAQEFAAOCAQ8AMIIBCgKCAQEAuKOihmIJw4Q6eM97PEoq44isk05Y
Wnre/NUR/o10p5cW/xpeC2ttaB1YKOe75DCRW/DfcOO3ZOAFtFvPh6BArogu/8GW
lp2sEh67Y8/Nl0134JrJ0uT9k5T889HDQydr0Y9ScFCYky/rFoovIE6pCwbKNLdF
xd5CmzFgpxbrUvP4vQTF68T+Aqs4qea1m0yJEB+swoAfdrj79bB6KAGlxIy9XraQ
8WBfUh7SZnGTCoME2Q453kzILmNNzKeuWj/3ZyLA1EUpmD/P4a5O5M9iDUipXWao
9M/pZxmDhbAnyw24AChJg3QZpUArrZfIr/WedumjAFzieO+igAgES0LaaQIDAQAB
o0kwRzAOBgNVHQ8BAf8EBAMCB4AwFgYDVR0lAQH/BAwwCgYIKwYBBQUHAwMwHQYD
VR0OBBYEFLTpW8+/msbKYbkV886JUfb9J/SPMA0GCSqGSIb3DQEBCwUAA4IBAQBB
iOhjhYYZRu/z9O66ppSK5ZD1Jcy+NAyIr4PKbAHVo80QbnALZiz8yvnLMsiaOZyV
EYX2ZKkkSfM3Ta0i4DLFCv43ctpPV2dDMHljdCwPhj8gB9d3wqcseYv3AZTNoJcW
Y6RSlLd/WoMcLUDtflO6hen7apEi4YhRMnFKd66Yx6Q4AREsirQqZQWRMGdgLMxL
h7LmPbLULBS0snKyoXA6SCwrIPQ37/wm6xLdm0ZmTh59JktXs3zaqFNa2FJf6ILf
avHRh4skLL2otywnPUy8he3wGkBVkufehhQ4peY5mX0Npca6XKexO4wBnyGE03vO
gCzw+C86bcreI7p1v3G6
-----END CERTIFICATE-----
