Certificate:
    Data:
        Version: 3 (0x2)
        Serial Number: 0 (0x0)
        Signature Algorithm: sha256WithRSAEncryption
        Issuer: C=US, CN=quill-test-intermediate-ca
        Validity
            Not Before: Oct 11 13:09:49 2024 GMT
            Not After : Jan 14 13:09:49 2027 GMT
        Subject: CN=quill-test-leaf
        Subject Public Key Info:
            Public Key Algorithm: rsaEncryption
                Public-Key: (2048 bit)
                Modulus:
                    00:c2:38:1b:70:a7:7b:45:eb:e8:f4:13:db:43:5c:
                    f9:75:d6:4c:3d:a7:9c:33:a5:6f:62:2c:95:26:78:
                    e3:44:73:09:89:9e:40:ae:64:ef:d2:43:fe:b9:9b:
                    bb:ad:56:81:2e:3d:1c:78:da:64:b2:76:fe:6c:9c:
                    85:89:c4:a2:9f:2f:fa:63:85:2e:26:a7:72:52:75:
                    5b:7b:98:0d:69:c3:cb:54:1b:a1:7b:27:ce:51:b2:
                    c8:c0:1b:be:91:fa:28:c7:0e:16:a4:75:14:1b:ce:
                    a3:da:5c:0b:95:b7:f7:86:01:6b:08:8e:5c:88:db:
                    3d:be:38:03:0f:58:30:9e:2a:45:9e:94:71:f0:07:
                    96:6d:67:e6:e7:44:e2:f9:53:97:e8:74:a1:c1:1c:
                    30:c3:45:e6:6a:a7:cb:2c:1c:56:68:76:1c:0c:fa:
                    e4:e1:ba:e4:6a:c3:de:66:77:3d:3f:70:31:07:85:
                    9b:50:e7:c1:c8:cb:6d:b6:8e:26:bc:72:05:67:82:
                    58:69:58:cf:37:32:2f:ea:f5:63:6b:2b:f6:a8:bc:
                    0d:42:9a:e0:a0:99:2f:ff:b2:e4:7f:44:a8:d3:2a:
                    6e:d7:8a:ed:b8:89:b4:c0:bc:2c:44:57:4b:1c:ea:
                    ca:d1:15:ab:44:56:16:6a:cd:e9:ea:2f:5e:99:18:
                    8b:9d
                Exponent: 65537 (0x10001)
        X509v3 extensions:
            X509v3 Key Usage: critical
                Digital Signature
            X509v3 Extended Key Usage: critical
                Code Signing
            X509v3 Subject Key Identifier: 
                BF:2D:67:4C:31:EE:C3:F3:58:38:C6:AF:3F:BA:7E:A8:CB:69:5E:1E
            X509v3 Authority Key Identifier: 
                1C:DD:F1:37:6F:0C:65:8B:3B:92:45:35:01:70:C4:93:B5:23:E1:CA
    Signature Algorithm: sha256WithRSAEncryption
    Signature Value:
        c5:81:46:fd:52:ae:b9:49:b9:3e:4c:0a:35:3d:87:d8:49:66:
        e0:ea:b4:d3:f9:03:75:98:0b:38:e9:d9:3c:f5:77:eb:8d:c2:
        99:77:86:c8:b3:70:95:89:49:80:12:28:12:e0:eb:ec:1d:86:
        67:3a:24:62:dc:66:47:61:88:54:e4:26:a0:5a:40:95:b3:bd:
        f5:af:04:3d:21:da:dd:08:ee:a3:1d:4b:77:ff:96:ce:ed:47:
        52:63:f5:a7:aa:9e:06:6b:5f:d4:14:88:5f:a4:4c:4a:d3:94:
        50:dc:32:fd:25:ff:51:7b:f8:db:6a:2a:ce:a8:b8:dd:7e:c9:
        2e:ac:ea:06:fe:3b:ca:c2:ba:bc:1d:6f:92:b6:f8:52:7c:48:
        58:ca:35:86:99:65:eb:0a:65:00:8d:1a:c0:61:89:37:06:d8:
        c7:d8:39:7a:67:fa:4b:f5:ae:a6:d4:f4:38:40:39:0d:c3:30:
        41:7a:88:7e:b6:d7:ee:ec:f8:99:fa:44:0f:63:b1:e2:d6:b3:
        9f:ec:7d:cf:12:3d:74:5c:94:2b:d6:5a:3a:eb:81:d5:40:2f:
        96:6b:88:bc:e1:d0:63:da:fd:7c:ae:21:5a:c5:15:1e:6c:6c:
        10:80:12:59:52:18:f9:0e:b3:f8:cf:55:4d:8d:b5:13:0f:98:
        35:18:26:da
-----BEGIN CERTIFICATE-----
MIIDMTCCAhmgAwIBAgIBADANBgkqhkiG9w0BAQsFADAyMQswCQYDVQQGEwJVUzEj
MCEGA1UEAwwacXVpbGwtdGVzdC1pbnRlcm1lZGlhdGUtY2EwHhcNMjQxMDExMTMw
OTQ5WhcNMjcwMTE0MTMwOTQ5WjAaMRgwFgYDVQQDDA9xdWlsbC10ZXN0LWxlYWYw
ggEiMA0GCSqGSIb3DQEBAQUAA4IBDwAwggEKAoIBAQDCOBtwp3tF6+j0E9tDXPl1
1kw9p5wzpW9iLJUmeONEcwmJnkCuZO/SQ/65m7utVoEuPRx42mSydv5snIWJxKKf
L/pjhS4mp3JSdVt7mA1pw8tUG6F7J85RssjAG76R+ijHDhakdRQbzqPaXAuVt/eG
AWsIjlyI2z2+OAMPWDCeKkWelHHwB5ZtZ+bnROL5U5fodKHBHDDDReZqp8ssHFZo
dhwM+uThuuRqw95mdz0/cDEHhZtQ58HIy222jia8cgVnglhpWM83Mi/q9WNrK/ao
vA1CmuCgmS//suR/RKjTKm7Xiu24ibTAvCxEV0sc6srRFatEVhZqzenqL16ZGIud
AgMBAAGjajBoMA4GA1UdDwEB/wQEAwIHgDAWBgNVHSUBAf8EDDAKBggrBgEFBQcD
AzAdBgNVHQ4EFgQUvy1nTDHuw/NYOMavP7p+qMtpXh4wHwYDVR0jBBgwFoAUHN3x
N28MZYs7kkU1AXDEk7Uj4cowDQYJKoZIhvcNAQELBQADggEBAMWBRv1SrrlJuT5M
CjU9h9hJZuDqtNP5A3WYCzjp2Tz1d+uNwpl3hsizcJWJSYASKBLg6+wdhmc6JGLc
ZkdhiFTkJqBaQJWzvfWvBD0h2t0I7qMdS3f/ls7tR1Jj9aeqngZrX9QUiF+kTErT
lFDcMv0l/1F7+NtqKs6ouN1+yS6s6gb+O8rCurwdb5K2+FJ8SFjKNYaZZesKZQCN
GsBhiTcG2MfYOXpn+kv1rqbU9DhAOQ3DMEF6iH621+7s+Jn6RA9jseLWs5/sfc8S
PXRclCvWWjrrgdVAL5ZriLzh0GPa/XyuIVrFFR5sbBCAEllSGPkOs/jPVU2NtRMP
mDUYJto=
-----END CERTIFICATE-----
