Certificate:
    Data:
        Version: 1 (0x0)
        Serial Number: 0 (0x0)
    Signature Algorithm: sha256WithRSAEncryption
        Issuer: C=US, CN=Quill Test Intermediate CA
        Validity
            Not Before: Apr 23 16:28:39 2022 GMT
            Not After : Mar 30 16:28:39 2122 GMT
        Subject: CN=Quill Test Leaf
        Subject Public Key Info:
            Public Key Algorithm: rsaEncryption
                Public-Key: (2048 bit)
                Modulus:
                    00:ca:92:9b:ce:d1:ff:b4:f9:5f:50:29:bf:7a:c2:
                    16:7b:ad:cf:ee:e5:e8:79:54:fb:fb:47:52:b2:82:
                    9f:38:eb:4f:77:a0:28:fc:91:b2:cc:ea:d8:0e:53:
                    9b:94:65:09:fb:e2:f5:f5:cb:64:29:bd:0c:2c:ac:
                    30:1b:1b:44:8f:4a:31:a4:89:e6:87:00:0e:bd:39:
                    1a:ed:5b:b9:8f:cb:b4:b1:65:5b:c3:09:2b:5d:b1:
                    e1:67:36:1c:4c:2b:ee:bb:0e:1f:59:77:6c:28:ac:
                    c0:76:81:ff:d5:c5:4d:77:80:9a:6c:40:e2:db:26:
                    42:d1:d1:0c:ca:1c:52:d8:dc:c4:5f:af:06:de:0b:
                    7b:02:d6:6e:22:0c:82:6b:cf:dc:79:2e:57:6e:1c:
                    d9:d8:f2:96:36:54:00:8f:b4:39:c1:89:7f:33:02:
                    64:ff:6d:49:79:1f:75:48:84:fc:40:57:8f:c1:21:
                    51:83:60:bf:f6:2b:d9:70:25:07:7a:a5:97:e9:79:
                    45:c5:27:69:fc:43:d2:87:9c:cc:3e:5b:42:f2:7e:
                    f5:f9:f2:e1:81:76:91:d2:21:af:3f:c5:be:83:f7:
                    cb:33:bc:2a:60:c7:0e:18:bc:53:75:2f:88:9a:8e:
                    f3:eb:a4:70:84:4c:59:15:40:cf:ee:2d:35:8d:3f:
                    26:4d
                Exponent: 65537 (0x10001)
        X509v3 extensions:
            X509v3 Key Usage: critical
                Digital Signature
            X509v3 Extended Key Usage: critical
                Code Signing
            X509v3 Subject Key Identifier: 
                E9:0E:D9:16:51:88:C6:65:AD:5C:28:36:8D:F0:01:07:5E:7A:0E:83
    Signature Algorithm: sha256WithRSAEncryption
         42:41:cd:b5:46:1c:19:9c:22:a5:ca:ac:50:c3:aa:82:93:d1:
         0d:08:66:97:62:0f:23:b5:44:64:ae:b8:3f:d1:f8:46:f8:b3:
         21:14:a4:d5:01:9a:0a:2c:cd:db:54:87:4a:b6:7b:00:37:d0:
         18:02:d8:40:5d:32:c2:f6:c4:5a:1e:02:c1:3a:b6:b3:2b:b1:
         6e:45:10:02:79:4a:ae:1c:4f:93:0b:8e:af:b4:01:3d:ce:5f:
         e0:5d:1c:2c:37:62:4b:07:3a:e7:30:9e:25:c0:e7:e4:6a:9c:
         e4:8f:9a:f5:e8:fe:e1:0a:80:c6:d6:ba:b9:63:93:77:90:83:
         72:15:93:98:c8:8d:7b:28:d3:ff:8e:4c:b8:9c:2f:d0:dc:91:
         60:08:f6:81:fb:03:87:05:35:60:dd:43:c2:1d:8a:24:7c:5e:
         e9:41:b0:8f:98:88:1a:1f:5a:1c:a4:b8:bb:3e:87:d5:96:7e:
         94:06:29:4d:bc:8f:e5:84:d2:ca:3d:58:56:fb:94:2a:77:e4:
         9a:c8:c8:f5:fc:d4:37:d3:87:9e:f3:35:9a:f7:2f:54:5b:aa:
         4d:bf:9a:45:ee:eb:8e:c4:75:8e:01:10:df:17:3a:4f:ef:08:
         df:e5:df:7a:39:f5:1f:ba:5b:48:9e:7e:59:67:02:30:1e:06:
         c4:05:c6:bd
-----BEGIN CERTIFICATE-----
MIIDDTCCAfUCAQAwDQYJKoZIhvcNAQELBQAwMjELMAkGA1UEBhMCVVMxIzAhBgNV
BAMMGlF1aWxsIFRlc3QgSW50ZXJtZWRpYXRlIENBMCAXDTIyMDQyMzE2MjgzOVoY
DzIxMjIwMzMwMTYyODM5WjAaMRgwFgYDVQQDDA9RdWlsbCBUZXN0IExlYWYwggEi
MA0GCSqGSIb3DQEBAQUAA4IBDwAwggEKAoIBAQDKkpvO0f+0+V9QKb96whZ7rc/u
5eh5VPv7R1Kygp846093oCj8kbLM6tgOU5uUZQn74vX1y2QpvQwsrDAbG0SPSjGk
ieaHAA69ORrtW7mPy7SxZVvDCStdseFnNhxMK+67Dh9Zd2worMB2gf/VxU13gJps
QOLbJkLR0QzKHFLY3MRfrwbeC3sC1m4iDIJrz9x5LlduHNnY8pY2VACPtDnBiX8z
AmT/bUl5H3VIhPxAV4/BIVGDYL/2K9lwJQd6pZfpeUXFJ2n8Q9KHnMw+W0LyfvX5
8uGBdpHSIa8/xb6D98szvCpgxw4YvFN1L4iajvPrpHCETFkVQM/uLTWNPyZNAgMB
AAGjSTBHMA4GA1UdDwEB/wQEAwIHgDAWBgNVHSUBAf8EDDAKBggrBgEFBQcDAzAd
BgNVHQ4EFgQU6Q7ZFlGIxmWtXCg2jfABB156DoMwDQYJKoZIhvcNAQELBQADggEB
AEJBzbVGHBmcIqXKrFDDqoKT0Q0IZpdiDyO1RGSuuD/R+Eb4syEUpNUBmgoszdtU
h0q2ewA30BgC2EBdMsL2xFoeAsE6trMrsW5FEAJ5Sq4cT5MLjq+0AT3OX+BdHCw3
YksHOucwniXA5+RqnOSPmvXo/uEKgMbWurljk3eQg3IVk5jIjXso0/+OTLicL9Dc
kWAI9oH7A4cFNWDdQ8IdiiR8XulBsI+YiBofWhykuLs+h9WWfpQGKU28j+WE0so9
WFb7lCp35JrIyPX81DfTh57zNZr3L1Rbqk2/mkXu647EdY4BEN8XOk/vCN/l33o5
9R+6W0iefllnAjAeBsQFxr0=
-----END CERTIFICATE-----
