Certificate:
    Data:
        Version: 3 (0x2)
        Serial Number: 1 (0x1)
    Signature Algorithm: sha256WithRSAEncryption
        Issuer: C=US, CN=Quill Test Root CA
        Validity
            Not Before: Apr 23 16:28:38 2022 GMT
            Not After : Mar 30 16:28:38 2122 GMT
        Subject: C=US, CN=Quill Test Intermediate CA
        Subject Public Key Info:
            Public Key Algorithm: rsaEncryption
                Public-Key: (2048 bit)
                Modulus:
                    00:a8:e0:5c:e7:83:06:f5:6e:c6:a3:16:d6:5c:1e:
                    63:70:fd:34:2f:21:dc:90:61:e9:61:96:39:04:ea:
                    0d:46:a7:dd:4a:47:3c:fa:bb:04:26:f8:f2:14:f1:
                    6d:77:d5:bb:e1:ca:c6:a4:0b:20:f5:fb:9c:57:c8:
                    12:fa:fe:9f:a7:db:da:c9:d3:c1:86:8a:d2:de:c4:
                    5d:8f:17:34:46:b1:7d:7f:76:5f:e0:3e:da:80:f4:
                    48:22:0b:8a:03:48:8e:d0:79:2e:f1:d9:8a:78:36:
                    7b:31:a3:84:f9:50:c7:78:07:00:ce:db:fd:04:14:
                    ae:4e:3e:d1:24:a2:8c:57:8e:3e:7e:75:8e:d6:11:
                    29:a5:15:a7:39:23:56:7f:c9:53:33:28:9d:b0:54:
                    10:39:ec:bd:01:9e:e8:56:69:77:52:0e:e3:95:98:
                    49:52:3c:b4:18:d1:b3:4a:bb:16:46:74:d1:2e:f6:
                    94:4c:bb:f4:ac:2c:70:e7:26:f7:9f:98:e5:7b:dc:
                    2f:fe:5b:4e:15:98:93:dd:ca:ad:d5:77:9b:b9:17:
                    db:5f:58:54:ea:63:f4:cf:9a:83:93:bb:fb:0a:09:
                    6f:08:42:88:7f:33:ec:1d:af:69:d1:fc:ad:a0:28:
                    d5:e2:11:38:1b:f3:a6:de:97:b6:3c:12:45:c2:37:
                    30:b1
                Exponent: 65537 (0x10001)
        X509v3 extensions:
            X509v3 Basic Constraints: critical
                CA:TRUE
            X509v3 Key Usage: critical
                Digital Signature, Certificate Sign
    Signature Algorithm: sha256WithRSAEncryption
         78:57:6b:de:fd:12:d9:5a:32:ee:75:92:96:13:3a:60:da:49:
         f8:c0:b9:eb:da:bb:26:dc:d2:d7:22:93:46:49:31:cf:10:e8:
         a1:4f:b6:11:5f:6b:a1:ba:46:f8:2d:fa:48:31:10:42:14:12:
         58:4f:a3:04:c2:35:58:07:48:7c:d3:4a:9e:d7:1b:4e:a2:72:
         17:df:e6:2d:ef:46:41:0b:cc:0d:e5:a5:6b:f4:d3:9a:e4:1e:
         b5:e8:ee:52:77:2e:65:cd:36:36:ae:9d:80:42:e8:64:eb:e5:
         7d:92:f2:1c:bf:9a:53:42:ab:35:5c:b2:77:dd:2b:7a:ad:03:
         92:4e:64:31:73:e8:4c:8f:bb:ee:4d:f7:82:05:43:c2:b0:d1:
         eb:eb:d0:5d:20:29:08:22:ae:97:41:38:f3:ea:df:2a:6a:f8:
         d0:12:72:b8:10:8b:b2:c9:6d:75:d6:28:99:d0:4b:c8:cc:55:
         58:e2:d4:e8:65:e9:d7:bd:13:22:e9:e9:a1:3f:a1:6a:6a:2c:
         44:16:dd:e3:db:f6:cc:5a:5f:b9:6f:2d:94:79:46:fe:3b:f1:
         47:4b:05:ac:d4:3a:95:12:c4:d6:03:d0:ce:5b:e2:a1:13:4e:
         5b:28:3f:f7:c3:0a:92:c2:fd:85:cb:5c:a4:44:51:c9:36:bc:
         ee:5f:4f:6c
-----BEGIN CERTIFICATE-----
MIIC/DCCAeSgAwIBAgIBATANBgkqhkiG9w0BAQsFADAqMQswCQYDVQQGEwJVUzEb
MBkGA1UEAwwSUXVpbGwgVGVzdCBSb290IENBMCAXDTIyMDQyMzE2MjgzOFoYDzIx
MjIwMzMwMTYyODM4WjAyMQswCQYDVQQGEwJVUzEjMCEGA1UEAwwaUXVpbGwgVGVz
dCBJbnRlcm1lZGlhdGUgQ0EwggEiMA0GCSqGSIb3DQEBAQUAA4IBDwAwggEKAoIB
AQCo4Fzngwb1bsajFtZcHmNw/TQvIdyQYelhljkE6g1Gp91KRzz6uwQm+PIU8W13
1bvhysakCyD1+5xXyBL6/p+n29rJ08GGitLexF2PFzRGsX1/dl/gPtqA9EgiC4oD
SI7QeS7x2Yp4Nnsxo4T5UMd4BwDO2/0EFK5OPtEkooxXjj5+dY7WESmlFac5I1Z/
yVMzKJ2wVBA57L0BnuhWaXdSDuOVmElSPLQY0bNKuxZGdNEu9pRMu/SsLHDnJvef
mOV73C/+W04VmJPdyq3Vd5u5F9tfWFTqY/TPmoOTu/sKCW8IQoh/M+wdr2nR/K2g
KNXiETgb86bel7Y8EkXCNzCxAgMBAAGjIzAhMA8GA1UdEwEB/wQFMAMBAf8wDgYD
VR0PAQH/BAQDAgKEMA0GCSqGSIb3DQEBCwUAA4IBAQB4V2ve/RLZWjLudZKWEzpg
2kn4wLnr2rsm3NLXIpNGSTHPEOihT7YRX2uhukb4LfpIMRBCFBJYT6MEwjVYB0h8
00qe1xtOonIX3+Yt70ZBC8wN5aVr9NOa5B616O5Sdy5lzTY2rp2AQuhk6+V9kvIc
v5pTQqs1XLJ33St6rQOSTmQxc+hMj7vuTfeCBUPCsNHr69BdICkIIq6XQTjz6t8q
avjQEnK4EIuyyW111iiZ0EvIzFVY4tToZenXvRMi6emhP6FqaixEFt3j2/bMWl+5
by2UeUb+O/FHSwWs1DqVEsTWA9DOW+KhE05bKD/3wwqSwv2Fy1ykRFHJNrzuX09s
-----END CERTIFICATE-----
