Certificate:
    Data:
        Version: 3 (0x2)
        Serial Number: 1 (0x1)
    Signature Algorithm: sha256WithRSAEncryption
        Issuer: C=US, CN=quill-test-root-ca
        Validity
            Not Before: Apr 30 16:03:35 2022 GMT
            Not After : Aug  2 16:03:35 2024 GMT
        Subject: C=US, CN=quill-test-intermediate-ca
        Subject Public Key Info:
            Public Key Algorithm: rsaEncryption
                Public-Key: (2048 bit)
                Modulus:
                    00:bf:89:23:e0:22:d9:1b:b6:7f:c8:75:dc:e9:eb:
                    99:08:2f:d6:d2:da:53:8a:17:fd:dc:0b:da:14:6c:
                    bb:e4:db:87:5d:ac:e0:e0:37:2f:2b:f3:44:59:15:
                    2a:6a:e3:ec:60:78:b8:ca:99:a1:91:72:b3:e1:e8:
                    31:eb:6e:1f:78:72:8e:ed:51:65:61:2c:bf:21:91:
                    ea:38:b3:b3:ca:81:f0:ba:fd:c2:ff:80:2c:52:d6:
                    f4:7b:e2:fe:bb:b7:8a:90:3c:66:e1:7e:4e:86:6a:
                    2d:fa:67:0e:e3:da:04:71:96:40:74:42:c9:08:84:
                    11:f4:bd:58:f0:d1:73:6c:c1:47:74:e5:2a:5f:12:
                    b0:b5:f4:85:b1:09:2f:3e:a2:8b:25:0e:d4:49:ec:
                    84:0d:e5:27:14:d0:7f:d7:fc:6c:58:e6:e5:d7:29:
                    41:9b:e0:08:ce:70:1c:ef:d7:cc:93:55:06:53:fc:
                    a7:f6:d4:f4:fc:c7:86:22:c6:aa:c5:7a:c7:16:e5:
                    9c:cb:f8:fd:5d:12:0e:72:ba:fb:f0:6f:1d:8e:02:
                    1b:dc:72:b9:a6:5f:3a:32:e9:7f:06:70:07:78:b3:
                    f9:ae:b5:3a:e8:e8:0a:66:6a:ae:eb:fd:78:af:35:
                    e0:2b:c4:7e:b2:f2:07:c2:8c:60:24:73:68:33:72:
                    5c:47
                Exponent: 65537 (0x10001)
        X509v3 extensions:
            X509v3 Basic Constraints: critical
                CA:TRUE
            X509v3 Key Usage: critical
                Certificate Sign
    Signature Algorithm: sha256WithRSAEncryption
         bf:07:1c:d1:0d:9c:7f:fa:a7:31:63:23:62:d5:0e:06:d2:cc:
         20:a0:42:d9:1c:19:a8:25:b1:be:d8:7c:3a:07:2b:a4:f6:ff:
         cd:ab:f5:21:03:ba:ee:a3:1b:bf:d2:9a:43:bc:68:67:8b:26:
         f6:af:06:5b:b5:e2:bb:dc:3b:4b:e2:25:59:aa:70:3b:56:55:
         8a:0d:88:a5:0e:63:c0:07:53:57:75:7f:59:3c:64:56:69:a5:
         53:54:6d:4c:4b:bd:3f:7d:27:0a:e7:60:e9:b7:44:62:8e:ae:
         cb:a3:d3:2e:cd:a8:bc:d2:c2:c9:bc:7e:c3:5c:23:16:80:87:
         58:ef:f9:97:2f:5a:af:ec:6b:71:59:3e:c6:8f:d6:05:84:8e:
         fb:9c:4b:ec:c5:12:7b:85:a0:b8:e8:de:83:7c:46:3a:0d:51:
         31:c5:95:aa:94:8e:5d:44:5b:9a:28:38:aa:ff:8b:ba:77:e3:
         42:57:08:03:79:e0:b3:d7:4d:cd:7e:04:25:f8:76:6c:a4:fd:
         ad:53:bc:18:32:5c:86:ef:1d:bb:9b:ce:2f:c3:2b:5e:fd:77:
         06:6e:36:5e:db:7f:f6:df:df:95:7f:1c:6d:49:6b:eb:cc:08:
         3a:89:98:37:8e:e3:d4:24:b4:de:a2:22:ec:f6:71:47:94:0d:
         ab:0b:1f:c0
-----BEGIN CERTIFICATE-----
MIIC+jCCAeKgAwIBAgIBATANBgkqhkiG9w0BAQsFADAqMQswCQYDVQQGEwJVUzEb
MBkGA1UEAwwScXVpbGwtdGVzdC1yb290LWNhMB4XDTIyMDQzMDE2MDMzNVoXDTI0
MDgwMjE2MDMzNVowMjELMAkGA1UEBhMCVVMxIzAhBgNVBAMMGnF1aWxsLXRlc3Qt
aW50ZXJtZWRpYXRlLWNhMIIBIjANBgkqhkiG9w0BAQEFAAOCAQ8AMIIBCgKCAQEA
v4kj4CLZG7Z/yHXc6euZCC/W0tpTihf93AvaFGy75NuHXazg4DcvK/NEWRUqauPs
YHi4ypmhkXKz4egx624feHKO7VFlYSy/IZHqOLOzyoHwuv3C/4AsUtb0e+L+u7eK
kDxm4X5Ohmot+mcO49oEcZZAdELJCIQR9L1Y8NFzbMFHdOUqXxKwtfSFsQkvPqKL
JQ7USeyEDeUnFNB/1/xsWObl1ylBm+AIznAc79fMk1UGU/yn9tT0/MeGIsaqxXrH
FuWcy/j9XRIOcrr78G8djgIb3HK5pl86Mul/BnAHeLP5rrU66OgKZmqu6/14rzXg
K8R+svIHwoxgJHNoM3JcRwIDAQABoyMwITAPBgNVHRMBAf8EBTADAQH/MA4GA1Ud
DwEB/wQEAwICBDANBgkqhkiG9w0BAQsFAAOCAQEAvwcc0Q2cf/qnMWMjYtUOBtLM
IKBC2RwZqCWxvth8OgcrpPb/zav1IQO67qMbv9KaQ7xoZ4sm9q8GW7Xiu9w7S+Il
WapwO1ZVig2IpQ5jwAdTV3V/WTxkVmmlU1RtTEu9P30nCudg6bdEYo6uy6PTLs2o
vNLCybx+w1wjFoCHWO/5ly9ar+xrcVk+xo/WBYSO+5xL7MUSe4WguOjeg3xGOg1R
McWVqpSOXURbmig4qv+LunfjQlcIA3ngs9dNzX4EJfh2bKT9rVO8GDJchu8du5vO
L8MrXv13Bm42Xtt/9t/flX8cbUlr68wIOomYN47j1CS03qIi7PZxR5QNqwsfwA==
-----END CERTIFICATE-----
