Certificate:
    Data:
        Version: 3 (0x2)
        Serial Number: 1 (0x1)
        Signature Algorithm: sha256WithRSAEncryption
        Issuer: C=US, CN=quill-test-root-ca
        Validity
            Not Before: Oct 11 13:09:49 2024 GMT
            Not After : Jan 14 13:09:49 2027 GMT
        Subject: C=US, CN=quill-test-intermediate-ca
        Subject Public Key Info:
            Public Key Algorithm: rsaEncryption
                Public-Key: (2048 bit)
                Modulus:
                    00:e7:87:a8:73:c2:a4:bd:5b:9a:48:03:6e:c3:93:
                    a8:de:87:b3:32:57:28:57:e2:7b:31:23:e0:a4:bf:
                    2f:81:05:de:51:ba:23:97:6e:d7:56:f6:34:5d:41:
                    44:06:ad:db:48:cc:3c:11:31:52:3b:9a:60:5d:83:
                    a7:89:48:19:d9:3e:8d:09:ba:0e:26:4c:fb:54:84:
                    b3:ca:c1:e2:62:aa:00:89:c2:bb:68:17:d8:72:ba:
                    18:54:a3:45:a0:0e:5b:7b:13:cd:20:e1:33:70:43:
                    5b:22:58:36:94:c6:c8:0d:1a:98:d5:40:de:b4:94:
                    5e:fa:9e:c3:67:20:1b:f5:81:ce:93:ef:ac:2d:07:
                    52:ba:e9:7b:d4:1e:3a:cb:25:aa:e4:7e:86:3b:f7:
                    3c:2f:a1:41:30:e1:3a:92:e3:ae:5b:b8:5f:38:06:
                    52:e8:29:e7:82:b3:2b:01:6b:a2:56:f0:08:fd:bc:
                    fb:af:12:c3:7c:88:7c:76:58:e0:88:c2:17:d5:3a:
                    2a:19:cb:b8:3b:ef:95:6d:db:68:44:a2:21:e3:03:
                    2e:4a:2f:7e:72:6c:55:f9:07:43:c9:e0:7b:d2:04:
                    85:e0:f5:36:74:3e:7a:0e:61:55:e2:42:fb:9d:49:
                    44:93:da:16:87:6c:3e:ba:da:e0:02:42:38:72:5e:
                    29:c1
                Exponent: 65537 (0x10001)
        X509v3 extensions:
            X509v3 Basic Constraints: critical
                CA:TRUE
            X509v3 Key Usage: critical
                Certificate Sign
            X509v3 Subject Key Identifier: 
                1C:DD:F1:37:6F:0C:65:8B:3B:92:45:35:01:70:C4:93:B5:23:E1:CA
            X509v3 Authority Key Identifier: 
                C8:CE:D1:2B:0E:65:C8:D7:43:55:69:F1:49:99:26:97:1F:D4:32:39
    Signature Algorithm: sha256WithRSAEncryption
    Signature Value:
        2b:8b:43:6b:ce:cd:75:70:6d:e9:2c:be:c6:b2:85:58:dd:e4:
        09:fe:85:d9:88:3d:03:b8:66:86:7c:23:38:c7:31:25:33:95:
        aa:84:7d:99:75:09:8f:5d:39:ea:11:2c:65:1d:39:f5:e2:d5:
        16:ed:08:47:61:89:a9:b1:f7:6a:c3:24:45:e2:b9:c5:00:2d:
        cb:4d:39:0f:05:b5:f1:3f:04:c8:8b:b5:34:bf:a4:c3:ef:e6:
        9c:a6:c0:9b:c8:f8:6f:24:bb:50:f2:4c:8d:53:d5:71:dc:71:
        87:c5:b9:39:07:ef:47:4b:1f:15:d8:f3:7b:a0:5b:75:34:67:
        f8:51:a8:17:33:31:37:82:89:65:e6:9e:fc:a5:65:9f:f7:f2:
        9c:12:1c:6e:a0:74:e4:0c:69:c3:31:33:c3:bc:3e:2b:84:8a:
        0e:b3:4f:ae:e0:38:ea:d0:78:6b:c4:2a:9e:2e:c8:e1:af:1c:
        32:e8:55:40:b7:91:cf:84:1d:4d:87:2c:26:a2:19:46:32:bc:
        a6:10:d6:e6:fd:6e:51:97:0c:31:68:53:bc:75:ab:2b:f2:9c:
        c4:75:b9:0b:24:e8:52:70:c1:4c:e3:49:9c:6f:7b:50:4f:f2:
        30:7f:8f:e5:0d:56:64:fb:50:cb:7d:2e:6d:c9:d3:6e:74:bf:
        9c:5e:6f:ab
-----BEGIN CERTIFICATE-----
MIIDOjCCAiKgAwIBAgIBATANBgkqhkiG9w0BAQsFADAqMQswCQYDVQQGEwJVUzEb
MBkGA1UEAwwScXVpbGwtdGVzdC1yb290LWNhMB4XDTI0MTAxMTEzMDk0OVoXDTI3
MDExNDEzMDk0OVowMjELMAkGA1UEBhMCVVMxIzAhBgNVBAMMGnF1aWxsLXRlc3Qt
aW50ZXJtZWRpYXRlLWNhMIIBIjANBgkqhkiG9w0BAQEFAAOCAQ8AMIIBCgKCAQEA
54eoc8KkvVuaSANuw5Oo3oezMlcoV+J7MSPgpL8vgQXeUbojl27XVvY0XUFEBq3b
SMw8ETFSO5pgXYOniUgZ2T6NCboOJkz7VISzysHiYqoAicK7aBfYcroYVKNFoA5b
exPNIOEzcENbIlg2lMbIDRqY1UDetJRe+p7DZyAb9YHOk++sLQdSuul71B46yyWq
5H6GO/c8L6FBMOE6kuOuW7hfOAZS6CnngrMrAWuiVvAI/bz7rxLDfIh8dljgiMIX
1ToqGcu4O++VbdtoRKIh4wMuSi9+cmxV+QdDyeB70gSF4PU2dD56DmFV4kL7nUlE
k9oWh2w+utrgAkI4cl4pwQIDAQABo2MwYTAPBgNVHRMBAf8EBTADAQH/MA4GA1Ud
DwEB/wQEAwICBDAdBgNVHQ4EFgQUHN3xN28MZYs7kkU1AXDEk7Uj4cowHwYDVR0j
BBgwFoAUyM7RKw5lyNdDVWnxSZkmlx/UMjkwDQYJKoZIhvcNAQELBQADggEBACuL
Q2vOzXVwbeksvsayhVjd5An+hdmIPQO4ZoZ8IzjHMSUzlaqEfZl1CY9dOeoRLGUd
OfXi1RbtCEdhiamx92rDJEXiucUALctNOQ8FtfE/BMiLtTS/pMPv5pymwJvI+G8k
u1DyTI1T1XHccYfFuTkH70dLHxXY83ugW3U0Z/hRqBczMTeCiWXmnvylZZ/38pwS
HG6gdOQMacMxM8O8PiuEig6zT67gOOrQeGvEKp4uyOGvHDLoVUC3kc+EHU2HLCai
GUYyvKYQ1ub9blGXDDFoU7x1qyvynMR1uQsk6FJwwUzjSZxve1BP8jB/j+UNVmT7
UMt9Lm3J0250v5xeb6s=
-----END CERTIFICATE-----
